{
   <insert_a_suppression_name_here>
   Memcheck:Cond
   fun:ccaes_vng_ctr_crypt
   fun:generate
   fun:arc4random_buf
   fun:_read_images
   fun:_hasObjcContents
   fun:__objc_personality_v0
   fun:_ZN4dyldL18notifyBatchPartialE17dyld_image_statesbPFPKcS0_jPK15dyld_image_infoEbb
   fun:_ZN4dyld21registerObjCNotifiersEPFvjPKPKcPKPK11mach_headerEPFvS1_S6_ESC_
   fun:_dyld_objc_notify_register
   fun:environ_init
   fun:_os_object_init
   fun:libdispatch_init
}
{
   <insert_a_suppression_name_here>
   Memcheck:Cond
   fun:_ZN4dyld5_mainEPK12macho_headermiPPKcS5_S5_Pm
   fun:_ZN13dyldbootstrap5startEPK12macho_headeriPPKclS2_Pm
   fun:_dyld_start
}
{
   <insert_a_suppression_name_here>
   Memcheck:Value8
   fun:_objc_rootAlloc
   fun:_libxpc_initializer
   fun:libSystem_initializer
   fun:_ZN16ImageLoaderMachO18doModInitFunctionsERKN11ImageLoader11LinkContextE
   fun:_ZN16ImageLoaderMachO16doInitializationERKN11ImageLoader11LinkContextE
   fun:_ZN11ImageLoader23recursiveInitializationERKNS_11LinkContextEjPKcRNS_21InitializerTimingListERNS_15UninitedUpwardsE
   fun:_ZN11ImageLoader23recursiveInitializationERKNS_11LinkContextEjPKcRNS_21InitializerTimingListERNS_15UninitedUpwardsE
   fun:_ZN11ImageLoader19processInitializersERKNS_11LinkContextEjRNS_21InitializerTimingListERNS_15UninitedUpwardsE
   fun:_ZN11ImageLoader15runInitializersERKNS_11LinkContextERNS_21InitializerTimingListE
   fun:_ZN4dyld24initializeMainExecutableEv
   fun:_ZN4dyld5_mainEPK12macho_headermiPPKcS5_S5_Pm
   fun:_ZN13dyldbootstrap5startEPK12macho_headeriPPKclS2_Pm
}
{
   <insert_a_suppression_name_here>
   Memcheck:Cond
   fun:_objc_rootAlloc
   fun:_libxpc_initializer
   fun:libSystem_initializer
   fun:_ZN16ImageLoaderMachO18doModInitFunctionsERKN11ImageLoader11LinkContextE
   fun:_ZN16ImageLoaderMachO16doInitializationERKN11ImageLoader11LinkContextE
   fun:_ZN11ImageLoader23recursiveInitializationERKNS_11LinkContextEjPKcRNS_21InitializerTimingListERNS_15UninitedUpwardsE
   fun:_ZN11ImageLoader23recursiveInitializationERKNS_11LinkContextEjPKcRNS_21InitializerTimingListERNS_15UninitedUpwardsE
   fun:_ZN11ImageLoader19processInitializersERKNS_11LinkContextEjRNS_21InitializerTimingListERNS_15UninitedUpwardsE
   fun:_ZN11ImageLoader15runInitializersERKNS_11LinkContextERNS_21InitializerTimingListE
   fun:_ZN4dyld24initializeMainExecutableEv
   fun:_ZN4dyld5_mainEPK12macho_headermiPPKcS5_S5_Pm
   fun:_ZN13dyldbootstrap5startEPK12macho_headeriPPKclS2_Pm
}
{
   <insert_a_suppression_name_here>
   Memcheck:Leak
   match-leak-kinds: reachable
   fun:malloc_zone_calloc
   fun:_ZL10remapClassP10objc_class
   fun:_ZN10TimeLogger3logEPKc
   fun:NXHashInsert
   fun:_ZL13hashPrototypePKvS0_
   fun:NXCreateHashTableFromZone
   fun:NXCreateHashTableFromZone
   fun:_ZNSt3__112__hash_tableINS_17__hash_value_typeImPN23objc_references_support20ObjectAssociationMapEEENS_22__unordered_map_hasherImS5_NS2_20DisguisedPointerHashELb1EEENS_21__unordered_map_equalImS5_NS2_21DisguisedPointerEqualELb1EEENS2_13ObjcAllocatorIS5_EEE8__rehashEm
   fun:_ZNK8objc_opt17objc_stringhash_t8getIndexEPKc
   fun:_Z14getDataSectionI15objc_image_infoEPT_PK14mach_header_64PKcPmS8_
   fun:__objc_personality_v0
   fun:_ZN4dyldL18notifyBatchPartialE17dyld_image_statesbPFPKcS0_jPK15dyld_image_infoEbb
}
{
   <insert_a_suppression_name_here>
   Memcheck:Leak
   match-leak-kinds: definite
   fun:malloc
   fun:notify_set_state
   fun:notify_set_state
   fun:_os_once_callout
   fun:_os_alloc_once
   fun:_notify_fork_child
   fun:libSystem_atfork_child
   fun:fork
   fun:main
}
{
   <insert_a_suppression_name_here>
   Memcheck:Cond
   fun:ccaes_vng_ctr_crypt
   fun:bcc_update
   fun:df
   fun:nistctr_init
   fun:init
   fun:arc4_init
   fun:arc4random_buf
   fun:_read_images
   fun:_hasObjcContents
   fun:__objc_personality_v0
   fun:_ZN4dyldL18notifyBatchPartialE17dyld_image_statesbPFPKcS0_jPK15dyld_image_infoEbb
   fun:_ZN4dyld21registerObjCNotifiersEPFvjPKPKcPKPK11mach_headerEPFvS1_S6_ESC_
}
{
   <insert_a_suppression_name_here>
   Memcheck:Leak
   match-leak-kinds: reachable
   fun:calloc
   fun:_ZL19_finishInitializingP10objc_classS0_
   fun:layout_bitmap_create
   fun:layout_bitmap_splat
   fun:layout_bitmap_slide
   fun:layout_bitmap_grow
   fun:layout_bitmap_grow
   fun:layout_bitmap_grow
   fun:_ZL24realizeClassWithoutSwiftP10objc_class
   fun:lookUpImpOrForward
   fun:objc_msgSend_stret_debug
   fun:xpc_atfork_child
}
{
   <insert_a_suppression_name_here>
   Memcheck:Leak
   match-leak-kinds: reachable
   fun:malloc_zone_malloc
   fun:NXCreateHashTableFromZone
   fun:NXCreateHashTableFromZone
   fun:_ZNSt3__112__hash_tableINS_17__hash_value_typeImPN23objc_references_support20ObjectAssociationMapEEENS_22__unordered_map_hasherImS5_NS2_20DisguisedPointerHashELb1EEENS_21__unordered_map_equalImS5_NS2_21DisguisedPointerEqualELb1EEENS2_13ObjcAllocatorIS5_EEE8__rehashEm
   fun:_ZNK8objc_opt17objc_stringhash_t8getIndexEPKc
   fun:_Z14getDataSectionI15objc_image_infoEPT_PK14mach_header_64PKcPmS8_
   fun:__objc_personality_v0
   fun:_ZN4dyldL18notifyBatchPartialE17dyld_image_statesbPFPKcS0_jPK15dyld_image_infoEbb
   fun:_ZN4dyld21registerObjCNotifiersEPFvjPKPKcPKPK11mach_headerEPFvS1_S6_ESC_
   fun:_dyld_objc_notify_register
   fun:environ_init
   fun:_os_object_init
}
{
   <insert_a_suppression_name_here>
   Memcheck:Cond
   fun:_ZN4dyldL25checkEnvironmentVariablesEPPKc
   fun:_ZN4dyld5_mainEPK12macho_headermiPPKcS5_S5_Pm
   fun:_ZN13dyldbootstrap5startEPK12macho_headeriPPKclS2_Pm
   fun:_dyld_start
}
{
   <insert_a_suppression_name_here>
   Memcheck:Cond
   fun:_xpc_dictionary_insert
   fun:_xpc_dyld_image_callback
   fun:_ZN4dyld20registerLoadCallbackEPFvPK11mach_headerPKcbE
   fun:_xpc_collect_images
   fun:_libxpc_initializer
   fun:libSystem_initializer
   fun:_ZN16ImageLoaderMachO18doModInitFunctionsERKN11ImageLoader11LinkContextE
   fun:_ZN16ImageLoaderMachO16doInitializationERKN11ImageLoader11LinkContextE
   fun:_ZN11ImageLoader23recursiveInitializationERKNS_11LinkContextEjPKcRNS_21InitializerTimingListERNS_15UninitedUpwardsE
   fun:_ZN11ImageLoader23recursiveInitializationERKNS_11LinkContextEjPKcRNS_21InitializerTimingListERNS_15UninitedUpwardsE
   fun:_ZN11ImageLoader19processInitializersERKNS_11LinkContextEjRNS_21InitializerTimingListERNS_15UninitedUpwardsE
   fun:_ZN11ImageLoader15runInitializersERKNS_11LinkContextERNS_21InitializerTimingListE
}
{
   <insert_a_suppression_name_here>
   Memcheck:Cond
   fun:ccaes_vng_ctr_crypt
   fun:df
   fun:nistctr_init
   fun:init
   fun:arc4_init
   fun:arc4random_buf
   fun:_read_images
   fun:_hasObjcContents
   fun:__objc_personality_v0
   fun:_ZN4dyldL18notifyBatchPartialE17dyld_image_statesbPFPKcS0_jPK15dyld_image_infoEbb
   fun:_ZN4dyld21registerObjCNotifiersEPFvjPKPKcPKPK11mach_headerEPFvS1_S6_ESC_
   fun:_dyld_objc_notify_register
}
{
   <insert_a_suppression_name_here>
   Memcheck:Leak
   match-leak-kinds: reachable
   fun:malloc_zone_malloc
   fun:NXHashInsert
   fun:_ZL13hashPrototypePKvS0_
   fun:NXCreateHashTableFromZone
   fun:NXCreateHashTableFromZone
   fun:_ZNSt3__112__hash_tableINS_17__hash_value_typeImPN23objc_references_support20ObjectAssociationMapEEENS_22__unordered_map_hasherImS5_NS2_20DisguisedPointerHashELb1EEENS_21__unordered_map_equalImS5_NS2_21DisguisedPointerEqualELb1EEENS2_13ObjcAllocatorIS5_EEE8__rehashEm
   fun:_ZNK8objc_opt17objc_stringhash_t8getIndexEPKc
   fun:_Z14getDataSectionI15objc_image_infoEPT_PK14mach_header_64PKcPmS8_
   fun:__objc_personality_v0
   fun:_ZN4dyldL18notifyBatchPartialE17dyld_image_statesbPFPKcS0_jPK15dyld_image_infoEbb
   fun:_ZN4dyld21registerObjCNotifiersEPFvjPKPKcPKPK11mach_headerEPFvS1_S6_ESC_
   fun:_dyld_objc_notify_register
}
{
   <insert_a_suppression_name_here>
   Memcheck:Leak
   match-leak-kinds: definite
   fun:malloc
   fun:ft_itox
   fun:int_to_pointer
   fun:get_str
   fun:get_data
   fun:print_placeholder
   fun:ft_printf
   fun:main
}
{
   <insert_a_suppression_name_here>
   Memcheck:Cond
   fun:ccaes_vng_ctr_crypt
   fun:bcc_update
   fun:df_bcc_update
   fun:df
   fun:nistctr_init
   fun:init
   fun:arc4_init
   fun:arc4random_buf
   fun:_read_images
   fun:_hasObjcContents
   fun:__objc_personality_v0
   fun:_ZN4dyldL18notifyBatchPartialE17dyld_image_statesbPFPKcS0_jPK15dyld_image_infoEbb
}
{
   <insert_a_suppression_name_here>
   Memcheck:Cond
   fun:xpc_uint64_create
   fun:_xpc_collect_images
   fun:_libxpc_initializer
   fun:libSystem_initializer
   fun:_ZN16ImageLoaderMachO18doModInitFunctionsERKN11ImageLoader11LinkContextE
   fun:_ZN16ImageLoaderMachO16doInitializationERKN11ImageLoader11LinkContextE
   fun:_ZN11ImageLoader23recursiveInitializationERKNS_11LinkContextEjPKcRNS_21InitializerTimingListERNS_15UninitedUpwardsE
   fun:_ZN11ImageLoader23recursiveInitializationERKNS_11LinkContextEjPKcRNS_21InitializerTimingListERNS_15UninitedUpwardsE
   fun:_ZN11ImageLoader19processInitializersERKNS_11LinkContextEjRNS_21InitializerTimingListERNS_15UninitedUpwardsE
   fun:_ZN11ImageLoader15runInitializersERKNS_11LinkContextERNS_21InitializerTimingListE
   fun:_ZN4dyld24initializeMainExecutableEv
   fun:_ZN4dyld5_mainEPK12macho_headermiPPKcS5_S5_Pm
}
{
   <insert_a_suppression_name_here>
   Memcheck:Leak
   match-leak-kinds: reachable
   fun:malloc
   fun:NXHashGet
   fun:NXCreateHashTableFromZone
   fun:_ZNSt3__112__hash_tableINS_17__hash_value_typeImPN23objc_references_support20ObjectAssociationMapEEENS_22__unordered_map_hasherImS5_NS2_20DisguisedPointerHashELb1EEENS_21__unordered_map_equalImS5_NS2_21DisguisedPointerEqualELb1EEENS2_13ObjcAllocatorIS5_EEE8__rehashEm
   fun:_ZNK8objc_opt17objc_stringhash_t8getIndexEPKc
   fun:_Z14getDataSectionI15objc_image_infoEPT_PK14mach_header_64PKcPmS8_
   fun:__objc_personality_v0
   fun:_ZN4dyldL18notifyBatchPartialE17dyld_image_statesbPFPKcS0_jPK15dyld_image_infoEbb
   fun:_ZN4dyld21registerObjCNotifiersEPFvjPKPKcPKPK11mach_headerEPFvS1_S6_ESC_
   fun:_dyld_objc_notify_register
   fun:environ_init
   fun:_os_object_init
}
{
   <insert_a_suppression_name_here>
   Memcheck:Leak
   match-leak-kinds: reachable
   fun:malloc
   fun:NXHashInsert
   fun:_ZL13hashPrototypePKvS0_
   fun:NXCreateHashTableFromZone
   fun:NXCreateHashTableFromZone
   fun:_ZNSt3__112__hash_tableINS_17__hash_value_typeImPN23objc_references_support20ObjectAssociationMapEEENS_22__unordered_map_hasherImS5_NS2_20DisguisedPointerHashELb1EEENS_21__unordered_map_equalImS5_NS2_21DisguisedPointerEqualELb1EEENS2_13ObjcAllocatorIS5_EEE8__rehashEm
   fun:_ZNK8objc_opt17objc_stringhash_t8getIndexEPKc
   fun:_Z14getDataSectionI15objc_image_infoEPT_PK14mach_header_64PKcPmS8_
   fun:__objc_personality_v0
   fun:_ZN4dyldL18notifyBatchPartialE17dyld_image_statesbPFPKcS0_jPK15dyld_image_infoEbb
   fun:_ZN4dyld21registerObjCNotifiersEPFvjPKPKcPKPK11mach_headerEPFvS1_S6_ESC_
   fun:_dyld_objc_notify_register
}
{
   <insert_a_suppression_name_here>
   Memcheck:Leak
   match-leak-kinds: indirect
   fun:calloc
   fun:notify_set_state
   fun:notify_set_state
   fun:_os_once_callout
   fun:_os_alloc_once
   fun:_notify_fork_child
   fun:libSystem_atfork_child
   fun:fork
   fun:main
}
{
   <insert_a_suppression_name_here>
   Memcheck:Leak
   match-leak-kinds: possible
   fun:calloc
   fun:map_images_nolock
   fun:__objc_personality_v0
   fun:_ZN4dyldL18notifyBatchPartialE17dyld_image_statesbPFPKcS0_jPK15dyld_image_infoEbb
   fun:_ZN4dyld21registerObjCNotifiersEPFvjPKPKcPKPK11mach_headerEPFvS1_S6_ESC_
   fun:_dyld_objc_notify_register
   fun:environ_init
   fun:_os_object_init
   fun:libdispatch_init
   fun:libSystem_initializer
   fun:_ZN16ImageLoaderMachO18doModInitFunctionsERKN11ImageLoader11LinkContextE
   fun:_ZN16ImageLoaderMachO16doInitializationERKN11ImageLoader11LinkContextE
}
{
   <insert_a_suppression_name_here>
   Memcheck:Cond
   fun:ccaes_vng_ctr_crypt
   fun:drbg_update
   fun:generate
   fun:arc4random_buf
   fun:_read_images
   fun:_hasObjcContents
   fun:__objc_personality_v0
   fun:_ZN4dyldL18notifyBatchPartialE17dyld_image_statesbPFPKcS0_jPK15dyld_image_infoEbb
   fun:_ZN4dyld21registerObjCNotifiersEPFvjPKPKcPKPK11mach_headerEPFvS1_S6_ESC_
   fun:_dyld_objc_notify_register
   fun:environ_init
   fun:_os_object_init
}
{
   <insert_a_suppression_name_here>
   Memcheck:Cond
   fun:drbg_update
   fun:nistctr_init
   fun:init
   fun:arc4_init
   fun:arc4random_buf
   fun:_read_images
   fun:_hasObjcContents
   fun:__objc_personality_v0
   fun:_ZN4dyldL18notifyBatchPartialE17dyld_image_statesbPFPKcS0_jPK15dyld_image_infoEbb
   fun:_ZN4dyld21registerObjCNotifiersEPFvjPKPKcPKPK11mach_headerEPFvS1_S6_ESC_
   fun:_dyld_objc_notify_register
   fun:environ_init
}
{
   <insert_a_suppression_name_here>
   Memcheck:Cond
   fun:_ZN4dyld30processDyldEnvironmentVariableEPKcS1_S1_
   fun:_ZN4dyldL25checkEnvironmentVariablesEPPKc
   fun:_ZN4dyld5_mainEPK12macho_headermiPPKcS5_S5_Pm
   fun:_ZN13dyldbootstrap5startEPK12macho_headeriPPKclS2_Pm
   fun:_dyld_start
}
{
   <insert_a_suppression_name_here>
   Memcheck:Leak
   match-leak-kinds: reachable
   fun:malloc_zone_malloc
   fun:_ZL16isEqualPrototypePKvS0_S0_
   fun:_ZL13hashPrototypePKvS0_
   fun:NXCreateHashTableFromZone
   fun:NXCreateHashTableFromZone
   fun:_ZNSt3__112__hash_tableINS_17__hash_value_typeImPN23objc_references_support20ObjectAssociationMapEEENS_22__unordered_map_hasherImS5_NS2_20DisguisedPointerHashELb1EEENS_21__unordered_map_equalImS5_NS2_21DisguisedPointerEqualELb1EEENS2_13ObjcAllocatorIS5_EEE8__rehashEm
   fun:_ZNK8objc_opt17objc_stringhash_t8getIndexEPKc
   fun:_Z14getDataSectionI15objc_image_infoEPT_PK14mach_header_64PKcPmS8_
   fun:__objc_personality_v0
   fun:_ZN4dyldL18notifyBatchPartialE17dyld_image_statesbPFPKcS0_jPK15dyld_image_infoEbb
   fun:_ZN4dyld21registerObjCNotifiersEPFvjPKPKcPKPK11mach_headerEPFvS1_S6_ESC_
   fun:_dyld_objc_notify_register
}
{
   <insert_a_suppression_name_here>
   Memcheck:Value8
   fun:objc_memmove_collectable
   fun:_libxpc_initializer
   fun:libSystem_initializer
   fun:_ZN16ImageLoaderMachO18doModInitFunctionsERKN11ImageLoader11LinkContextE
   fun:_ZN16ImageLoaderMachO16doInitializationERKN11ImageLoader11LinkContextE
   fun:_ZN11ImageLoader23recursiveInitializationERKNS_11LinkContextEjPKcRNS_21InitializerTimingListERNS_15UninitedUpwardsE
   fun:_ZN11ImageLoader23recursiveInitializationERKNS_11LinkContextEjPKcRNS_21InitializerTimingListERNS_15UninitedUpwardsE
   fun:_ZN11ImageLoader19processInitializersERKNS_11LinkContextEjRNS_21InitializerTimingListERNS_15UninitedUpwardsE
   fun:_ZN11ImageLoader15runInitializersERKNS_11LinkContextERNS_21InitializerTimingListE
   fun:_ZN4dyld24initializeMainExecutableEv
   fun:_ZN4dyld5_mainEPK12macho_headermiPPKcS5_S5_Pm
   fun:_ZN13dyldbootstrap5startEPK12macho_headeriPPKclS2_Pm
}
{
   <insert_a_suppression_name_here>
   Memcheck:Cond
   fun:drbg_update
   fun:generate
   fun:arc4random_buf
   fun:_read_images
   fun:_hasObjcContents
   fun:__objc_personality_v0
   fun:_ZN4dyldL18notifyBatchPartialE17dyld_image_statesbPFPKcS0_jPK15dyld_image_infoEbb
   fun:_ZN4dyld21registerObjCNotifiersEPFvjPKPKcPKPK11mach_headerEPFvS1_S6_ESC_
   fun:_dyld_objc_notify_register
   fun:environ_init
   fun:_os_object_init
   fun:libdispatch_init
}
{
   <insert_a_suppression_name_here>
   Memcheck:Value8
   fun:objc_initializeClassPair
   fun:_libxpc_initializer
   fun:libSystem_initializer
   fun:_ZN16ImageLoaderMachO18doModInitFunctionsERKN11ImageLoader11LinkContextE
   fun:_ZN16ImageLoaderMachO16doInitializationERKN11ImageLoader11LinkContextE
   fun:_ZN11ImageLoader23recursiveInitializationERKNS_11LinkContextEjPKcRNS_21InitializerTimingListERNS_15UninitedUpwardsE
   fun:_ZN11ImageLoader23recursiveInitializationERKNS_11LinkContextEjPKcRNS_21InitializerTimingListERNS_15UninitedUpwardsE
   fun:_ZN11ImageLoader19processInitializersERKNS_11LinkContextEjRNS_21InitializerTimingListERNS_15UninitedUpwardsE
   fun:_ZN11ImageLoader15runInitializersERKNS_11LinkContextERNS_21InitializerTimingListE
   fun:_ZN4dyld24initializeMainExecutableEv
   fun:_ZN4dyld5_mainEPK12macho_headermiPPKcS5_S5_Pm
   fun:_ZN13dyldbootstrap5startEPK12macho_headeriPPKclS2_Pm
}
{
   <insert_a_suppression_name_here>
   Memcheck:Cond
   fun:_ZN4dyldL10loadPhase3EPKcS1_RKNS_11LoadContextERjPNSt3__16vectorIS1_NS6_9allocatorIS1_EEEE
   fun:_ZN4dyldL10loadPhase1EPKcS1_RKNS_11LoadContextERjPNSt3__16vectorIS1_NS6_9allocatorIS1_EEEE
   fun:_ZN4dyldL10loadPhase0EPKcS1_RKNS_11LoadContextERjPNSt3__16vectorIS1_NS6_9allocatorIS1_EEEE
   fun:_ZN4dyld4loadEPKcRKNS_11LoadContextERj
   fun:_ZN4dyld5_mainEPK12macho_headermiPPKcS5_S5_Pm
   fun:_ZN13dyldbootstrap5startEPK12macho_headeriPPKclS2_Pm
   fun:_dyld_start
}
